target datalayout = "e-m:e-p270:32:32-p271:32:32-p272:64:64-i64:64-i128:128-f80:128-n8:16:32:64-S128"
target triple = "x86_64-pc-linux-gnu"

; Function Attrs: mustprogress nounwind uwtable
define void @umsg_close_77(ptr noundef %0) #1 {
  %2 = alloca ptr, align 8
  store ptr %0, ptr %2, align 8, !tbaa !43
  %3 = load ptr, ptr %2, align 8, !tbaa !43
  %4 = icmp eq ptr %3, null
  br i1 %4, label %5, label %6

5:                                                ; preds = %1
  br label %13

6:                                                ; preds = %1
  %7 = load ptr, ptr %2, align 8, !tbaa !43
  %8 = icmp eq ptr %7, null
  br i1 %8, label %13, label %9

9:                                                ; preds = %6
  %10 = load ptr, ptr %7, align 8, !tbaa !58
  %11 = getelementptr inbounds ptr, ptr %10, i64 1
  %12 = load ptr, ptr %11, align 8
  call void %12(ptr noundef nonnull align 8 dereferenceable(512) %7) #13
  br label %13

13:                                               ; preds = %5, %9, %6
  ret void
}

; Function Attrs: mustprogress uwtable
define void @u_vparseMessageWithError_77(ptr noundef %0, ptr noundef %1, i32 noundef %2, ptr noundef %3, i32 noundef %4, ptr noundef %5, ptr noundef %6, ptr noundef %7) #0 {
  %9 = alloca ptr, align 8
  %10 = alloca ptr, align 8
  %11 = alloca i32, align 4
  %12 = alloca ptr, align 8
  %13 = alloca i32, align 4
  %14 = alloca ptr, align 8
  %15 = alloca ptr, align 8
  %16 = alloca ptr, align 8
  %17 = alloca ptr, align 8
  %18 = alloca i32, align 4
  store ptr %0, ptr %9, align 8, !tbaa !37
  store ptr %1, ptr %10, align 8, !tbaa !38
  store i32 %2, ptr %11, align 4, !tbaa !35
  store ptr %3, ptr %12, align 8, !tbaa !38
  store i32 %4, ptr %13, align 4, !tbaa !35
  store ptr %5, ptr %14, align 8, !tbaa !41
  store ptr %6, ptr %15, align 8, !tbaa !44
  store ptr %7, ptr %16, align 8, !tbaa !40
  call void @llvm.lifetime.start.p0(i64 8, ptr %17) #13
  %19 = load ptr, ptr %10, align 8, !tbaa !38
  %20 = load i32, ptr %11, align 4, !tbaa !35
  %21 = load ptr, ptr %9, align 8, !tbaa !37
  %22 = load ptr, ptr %15, align 8, !tbaa !44
  %23 = load ptr, ptr %16, align 8, !tbaa !40
  %24 = call ptr @umsg_open_77(ptr noundef %19, i32 noundef %20, ptr noundef %21, ptr noundef %22, ptr noundef %23)
  store ptr %24, ptr %17, align 8, !tbaa !43
  call void @llvm.lifetime.start.p0(i64 4, ptr %18) #13
  store i32 0, ptr %18, align 4, !tbaa !35
  %25 = load ptr, ptr %17, align 8, !tbaa !43
  %26 = load ptr, ptr %12, align 8, !tbaa !38
  %27 = load i32, ptr %13, align 4, !tbaa !35
  %28 = load ptr, ptr %14, align 8, !tbaa !41
  %29 = load ptr, ptr %16, align 8, !tbaa !40
  call void @umsg_vparse_77(ptr noundef %25, ptr noundef %26, i32 noundef %27, ptr noundef %18, ptr noundef %28, ptr noundef %29)
  %30 = load ptr, ptr %17, align 8, !tbaa !43
  call void @umsg_close_77(ptr noundef %30)
  call void @llvm.lifetime.end.p0(i64 4, ptr %18) #13
  call void @llvm.lifetime.end.p0(i64 8, ptr %17) #13
  ret void
}